---
triple:          'arm64-apple-darwin'
binary-path:     '/Users/om.patil/Code/CSES/jspwTest'
relocations:
  - { offset: 0x1E28F, size: 0x8, addend: 0x0, symName: __ZStL8__ioinit, symObjAddr: 0x96A4E, symBinAddr: 0x100010000, symSize: 0x0 }
  - { offset: 0x1EB80, size: 0x8, addend: 0x0, symName: __GLOBAL__sub_I_jspwTest.cpp, symObjAddr: 0x5740, symBinAddr: 0x1000053F4, symSize: 0x14 }
  - { offset: 0x1EB98, size: 0x8, addend: 0x0, symName: __Z41__static_initialization_and_destruction_0v, symObjAddr: 0x5704, symBinAddr: 0x1000053B8, symSize: 0x3C }
  - { offset: 0x1EBB0, size: 0x8, addend: 0x0, symName: __ZSt9__advanceIPxlEvRT_T0_St26random_access_iterator_tag, symObjAddr: 0x4C90, symBinAddr: 0x100005380, symSize: 0x38 }
  - { offset: 0x1ECE4, size: 0x8, addend: 0x0, symName: __ZN9__gnu_cxx5__ops14_Iter_comp_valIZ4mainEUlxxE_EclINS_17__normal_iteratorIPxSt6vectorIxSaIxEEEExEEbT_RT0_, symObjAddr: 0x4C54, symBinAddr: 0x100005344, symSize: 0x3C }
  - { offset: 0x1ED5C, size: 0x8, addend: 0x0, symName: __ZSt9__fill_a1IPxxEvT_S1_RKT0_, symObjAddr: 0x4BF4, symBinAddr: 0x1000052E4, symSize: 0x60 }
  - { offset: 0x1EE08, size: 0x8, addend: 0x0, symName: __ZSt23__copy_move_backward_a2ILb1EPxS0_ET1_T0_S2_S1_, symObjAddr: 0x4B00, symBinAddr: 0x1000051F0, symSize: 0xF4 }
  - { offset: 0x1EFC2, size: 0x8, addend: 0x0, symName: __ZSt11__push_heapIN9__gnu_cxx17__normal_iteratorIPxSt6vectorIxSaIxEEEElxNS0_5__ops14_Iter_comp_valIZ4mainEUlxxE_EEEvT_T0_SC_T1_RT2_, symObjAddr: 0x4970, symBinAddr: 0x100005060, symSize: 0x190 }
  - { offset: 0x1F26E, size: 0x8, addend: 0x0, symName: __ZN9__gnu_cxx5__ops14_Iter_comp_valIZ4mainEUlxxE_EC1EONS0_15_Iter_comp_iterIS2_EE, symObjAddr: 0x4940, symBinAddr: 0x100005030, symSize: 0x30 }
  - { offset: 0x1F316, size: 0x8, addend: 0x0, symName: __ZSt12__niter_wrapIN9__gnu_cxx17__normal_iteratorIPxSt6vectorIxSaIxEEEES2_ET_S7_T0_, symObjAddr: 0x48E0, symBinAddr: 0x100004FD0, symSize: 0x60 }
  - { offset: 0x1F493, size: 0x8, addend: 0x0, symName: __ZSt4swapIxENSt9enable_ifIXsrSt6__and_IJSt6__not_ISt15__is_tuple_likeIT_EESt21is_move_constructibleIS4_ESt18is_move_assignableIS4_EEE5valueEvE4typeERS4_SE_, symObjAddr: 0x488C, symBinAddr: 0x100004F7C, symSize: 0x54 }
  - { offset: 0x1F54B, size: 0x8, addend: 0x0, symName: __ZSt13__adjust_heapIN9__gnu_cxx17__normal_iteratorIPxSt6vectorIxSaIxEEEElxNS0_5__ops15_Iter_comp_iterIZ4mainEUlxxE_EEEvT_T0_SC_T1_T2_, symObjAddr: 0x4614, symBinAddr: 0x100004D04, symSize: 0x278 }
  - { offset: 0x1F95E, size: 0x8, addend: 0x0, symName: __ZStltIxxEbRKSt4pairIT_T0_ES5_, symObjAddr: 0x45AC, symBinAddr: 0x100004C9C, symSize: 0x68 }
  - { offset: 0x1F9CF, size: 0x8, addend: 0x0, symName: __ZSt19__relocate_object_aISt4pairIxxES1_SaIS1_EEvPT_PT0_RT1_, symObjAddr: 0x44C8, symBinAddr: 0x100004BB8, symSize: 0xE4 }
  - { offset: 0x1FBE2, size: 0x8, addend: 0x0, symName: __ZN9__gnu_cxx5__ops14_Val_comp_iterIZ4mainEUlxxE_EclIxNS_17__normal_iteratorIPxSt6vectorIxSaIxEEEEEEbRT_T0_, symObjAddr: 0x448C, symBinAddr: 0x100004B7C, symSize: 0x3C }
  - { offset: 0x1FC81, size: 0x8, addend: 0x0, symName: __ZN9__gnu_cxx5__ops14_Val_comp_iterIZ4mainEUlxxE_EC1EONS0_15_Iter_comp_iterIS2_EE, symObjAddr: 0x445C, symBinAddr: 0x100004B4C, symSize: 0x30 }
  - { offset: 0x1FD48, size: 0x8, addend: 0x0, symName: __ZSt12__miter_baseIN9__gnu_cxx17__normal_iteratorIPxSt6vectorIxSaIxEEEEET_S7_, symObjAddr: 0x4448, symBinAddr: 0x100004B38, symSize: 0x14 }
  - { offset: 0x1FD7B, size: 0x8, addend: 0x0, symName: __ZSt9iter_swapIN9__gnu_cxx17__normal_iteratorIPxSt6vectorIxSaIxEEEES6_EvT_T0_, symObjAddr: 0x4420, symBinAddr: 0x100004B10, symSize: 0x28 }
  - { offset: 0x1FE1C, size: 0x8, addend: 0x0, symName: __ZSt10__pop_heapIN9__gnu_cxx17__normal_iteratorIPxSt6vectorIxSaIxEEEENS0_5__ops15_Iter_comp_iterIZ4mainEUlxxE_EEEvT_SB_SB_RT0_, symObjAddr: 0x4384, symBinAddr: 0x100004A74, symSize: 0x9C }
  - { offset: 0x2002B, size: 0x8, addend: 0x0, symName: __ZSt11__make_heapIN9__gnu_cxx17__normal_iteratorIPxSt6vectorIxSaIxEEEENS0_5__ops15_Iter_comp_iterIZ4mainEUlxxE_EEEvT_SB_RT0_, symObjAddr: 0x4254, symBinAddr: 0x100004944, symSize: 0x130 }
  - { offset: 0x202C8, size: 0x8, addend: 0x0, symName: __ZSt10_ConstructIxJEEvPT_DpOT0_, symObjAddr: 0x4208, symBinAddr: 0x1000048F8, symSize: 0x4C }
  - { offset: 0x20308, size: 0x8, addend: 0x0, symName: __ZStgtIxxEbRKSt4pairIT_T0_ES5_, symObjAddr: 0x41E4, symBinAddr: 0x1000048D4, symSize: 0x24 }
  - { offset: 0x20359, size: 0x8, addend: 0x0, symName: __ZNSt19_UninitDestroyGuardIPxvE7releaseEv, symObjAddr: 0x41C8, symBinAddr: 0x1000048B8, symSize: 0x1C }
  - { offset: 0x2037F, size: 0x8, addend: 0x0, symName: __ZSt10_ConstructIxJRKxEEvPT_DpOT0_, symObjAddr: 0x4168, symBinAddr: 0x100004858, symSize: 0x60 }
  - { offset: 0x2042E, size: 0x8, addend: 0x0, symName: __ZNSt19_UninitDestroyGuardIPxvED1Ev, symObjAddr: 0x4110, symBinAddr: 0x100004800, symSize: 0x58 }
  - { offset: 0x2047B, size: 0x8, addend: 0x0, symName: __ZNSt19_UninitDestroyGuardIPxvEC1ERS0_, symObjAddr: 0x40DC, symBinAddr: 0x1000047CC, symSize: 0x34 }
  - { offset: 0x204AA, size: 0x8, addend: 0x0, symName: __ZNSt15__new_allocatorIxE8allocateEmPKv, symObjAddr: 0x4060, symBinAddr: 0x100004750, symSize: 0x7C }
  - { offset: 0x20532, size: 0x8, addend: 0x0, symName: __ZSt14__relocate_a_1IPSt4pairIxxES2_SaIS1_EET0_T_S5_S4_RT1_, symObjAddr: 0x3FE8, symBinAddr: 0x1000046D8, symSize: 0x78 }
  - { offset: 0x20626, size: 0x8, addend: 0x0, symName: __ZNSt15__new_allocatorISt4pairIxxEE8allocateEmPKv, symObjAddr: 0x3F6C, symBinAddr: 0x10000465C, symSize: 0x7C }
  - { offset: 0x2069C, size: 0x8, addend: 0x0, symName: __ZNKSt12_Vector_baseISt4pairIxxESaIS1_EE19_M_get_Tp_allocatorEv, symObjAddr: 0x3F58, symBinAddr: 0x100004648, symSize: 0x14 }
  - { offset: 0x206C2, size: 0x8, addend: 0x0, symName: __ZNSt6vectorISt4pairIxxESaIS1_EE11_S_max_sizeERKS2_, symObjAddr: 0x3F04, symBinAddr: 0x1000045F4, symSize: 0x54 }
  - { offset: 0x2077D, size: 0x8, addend: 0x0, symName: __ZNSt19_UninitDestroyGuardIPSt6vectorISt4pairIxxESaIS2_EEvE7releaseEv, symObjAddr: 0x3EE8, symBinAddr: 0x1000045D8, symSize: 0x1C }
  - { offset: 0x207A3, size: 0x8, addend: 0x0, symName: __ZSt10_ConstructISt6vectorISt4pairIxxESaIS2_EEJEEvPT_DpOT0_, symObjAddr: 0x3E88, symBinAddr: 0x100004578, symSize: 0x60 }
  - { offset: 0x20801, size: 0x8, addend: 0x0, symName: __ZNSt19_UninitDestroyGuardIPSt6vectorISt4pairIxxESaIS2_EEvED1Ev, symObjAddr: 0x3E30, symBinAddr: 0x100004520, symSize: 0x58 }
  - { offset: 0x2084E, size: 0x8, addend: 0x0, symName: __ZNSt19_UninitDestroyGuardIPSt6vectorISt4pairIxxESaIS2_EEvEC1ERS5_, symObjAddr: 0x3DFC, symBinAddr: 0x1000044EC, symSize: 0x34 }
  - { offset: 0x2087D, size: 0x8, addend: 0x0, symName: __ZNSt15__new_allocatorISt6vectorISt4pairIxxESaIS2_EEE8allocateEmPKv, symObjAddr: 0x3D6C, symBinAddr: 0x10000445C, symSize: 0x90 }
  - { offset: 0x20905, size: 0x8, addend: 0x0, symName: __ZSt25__unguarded_linear_insertIN9__gnu_cxx17__normal_iteratorIPxSt6vectorIxSaIxEEEENS0_5__ops14_Val_comp_iterIZ4mainEUlxxE_EEEvT_T0_, symObjAddr: 0x3CC8, symBinAddr: 0x1000043B8, symSize: 0xA4 }
  - { offset: 0x20AA3, size: 0x8, addend: 0x0, symName: __ZN9__gnu_cxx5__ops15__val_comp_iterIZ4mainEUlxxE_EENS0_14_Val_comp_iterIT_EENS0_15_Iter_comp_iterIS4_EE, symObjAddr: 0x3CA4, symBinAddr: 0x100004394, symSize: 0x24 }
  - { offset: 0x20B62, size: 0x8, addend: 0x0, symName: __ZN9__gnu_cxx5__ops15_Iter_comp_iterIZ4mainEUlxxE_EclINS_17__normal_iteratorIPxSt6vectorIxSaIxEEEESA_EEbT_T0_, symObjAddr: 0x3C68, symBinAddr: 0x100004358, symSize: 0x3C }
  - { offset: 0x20BFA, size: 0x8, addend: 0x0, symName: __ZSt21__unguarded_partitionIN9__gnu_cxx17__normal_iteratorIPxSt6vectorIxSaIxEEEENS0_5__ops15_Iter_comp_iterIZ4mainEUlxxE_EEET_SB_SB_SB_T0_, symObjAddr: 0x3B74, symBinAddr: 0x100004264, symSize: 0xF4 }
  - { offset: 0x20D5C, size: 0x8, addend: 0x0, symName: __ZSt22__move_median_to_firstIN9__gnu_cxx17__normal_iteratorIPxSt6vectorIxSaIxEEEENS0_5__ops15_Iter_comp_iterIZ4mainEUlxxE_EEEvT_SB_SB_SB_T0_, symObjAddr: 0x3A64, symBinAddr: 0x100004154, symSize: 0x110 }
  - { offset: 0x20DFB, size: 0x8, addend: 0x0, symName: __ZSt11__sort_heapIN9__gnu_cxx17__normal_iteratorIPxSt6vectorIxSaIxEEEENS0_5__ops15_Iter_comp_iterIZ4mainEUlxxE_EEEvT_SB_RT0_, symObjAddr: 0x39D8, symBinAddr: 0x1000040C8, symSize: 0x8C }
  - { offset: 0x20EE9, size: 0x8, addend: 0x0, symName: __ZSt13__heap_selectIN9__gnu_cxx17__normal_iteratorIPxSt6vectorIxSaIxEEEENS0_5__ops15_Iter_comp_iterIZ4mainEUlxxE_EEEvT_SB_SB_T0_, symObjAddr: 0x3914, symBinAddr: 0x100004004, symSize: 0xC4 }
  - { offset: 0x2100C, size: 0x8, addend: 0x0, symName: __ZNSt27__uninitialized_default_n_1ILb1EE18__uninit_default_nIPxmEET_S3_T0_, symObjAddr: 0x3820, symBinAddr: 0x100003F10, symSize: 0xF4 }
  - { offset: 0x211A4, size: 0x8, addend: 0x0, symName: __ZN9__gnu_cxx5__ops14_Iter_comp_valISt7greaterISt4pairIxxEEEC1EONS0_15_Iter_comp_iterIS5_EE, symObjAddr: 0x3800, symBinAddr: 0x100003EF0, symSize: 0x20 }
  - { offset: 0x211FE, size: 0x8, addend: 0x0, symName: __ZN9__gnu_cxx5__ops15_Iter_comp_iterISt7greaterISt4pairIxxEEEclINS_17__normal_iteratorIPS4_St6vectorIS4_SaIS4_EEEESD_EEbT_T0_, symObjAddr: 0x37D4, symBinAddr: 0x100003EC4, symSize: 0x2C }
  - { offset: 0x2129A, size: 0x8, addend: 0x0, symName: __ZNKSt7greaterISt4pairIxxEEclERKS1_S4_, symObjAddr: 0x37AC, symBinAddr: 0x100003E9C, symSize: 0x28 }
  - { offset: 0x212E6, size: 0x8, addend: 0x0, symName: __ZNSt15__new_allocatorISt4pairIxxEE10deallocateEPS1_m, symObjAddr: 0x377C, symBinAddr: 0x100003E6C, symSize: 0x30 }
  - { offset: 0x2132C, size: 0x8, addend: 0x0, symName: __ZSt18__do_uninit_fill_nIPxmxET_S1_T0_RKT1_, symObjAddr: 0x36EC, symBinAddr: 0x100003DDC, symSize: 0x90 }
  - { offset: 0x213E7, size: 0x8, addend: 0x0, symName: __ZNSt15__new_allocatorIxE10deallocateEPxm, symObjAddr: 0x36BC, symBinAddr: 0x100003DAC, symSize: 0x30 }
  - { offset: 0x21467, size: 0x8, addend: 0x0, symName: __ZSt12__relocate_aIPSt4pairIxxES2_SaIS1_EET0_T_S5_S4_RT1_, symObjAddr: 0x3670, symBinAddr: 0x100003D60, symSize: 0x4C }
  - { offset: 0x21573, size: 0x8, addend: 0x0, symName: __ZNKSt6vectorISt4pairIxxESaIS1_EE4sizeEv, symObjAddr: 0x3630, symBinAddr: 0x100003D20, symSize: 0x40 }
  - { offset: 0x215AE, size: 0x8, addend: 0x0, symName: __ZNKSt6vectorISt4pairIxxESaIS1_EE8max_sizeEv, symObjAddr: 0x3610, symBinAddr: 0x100003D00, symSize: 0x20 }
  - { offset: 0x215D4, size: 0x8, addend: 0x0, symName: __ZNSt27__uninitialized_default_n_1ILb0EE18__uninit_default_nIPSt6vectorISt4pairIxxESaIS4_EEmEET_S8_T0_, symObjAddr: 0x3594, symBinAddr: 0x100003C84, symSize: 0x7C }
  - { offset: 0x2165A, size: 0x8, addend: 0x0, symName: __ZNSt15__new_allocatorISt6vectorISt4pairIxxESaIS2_EEE10deallocateEPS4_m, symObjAddr: 0x3558, symBinAddr: 0x100003C48, symSize: 0x3C }
  - { offset: 0x216DA, size: 0x8, addend: 0x0, symName: __ZSt26__unguarded_insertion_sortIN9__gnu_cxx17__normal_iteratorIPxSt6vectorIxSaIxEEEENS0_5__ops15_Iter_comp_iterIZ4mainEUlxxE_EEEvT_SB_T0_, symObjAddr: 0x34CC, symBinAddr: 0x100003BBC, symSize: 0x8C }
  - { offset: 0x217EC, size: 0x8, addend: 0x0, symName: __ZSt16__insertion_sortIN9__gnu_cxx17__normal_iteratorIPxSt6vectorIxSaIxEEEENS0_5__ops15_Iter_comp_iterIZ4mainEUlxxE_EEEvT_SB_T0_, symObjAddr: 0x32C8, symBinAddr: 0x1000039B8, symSize: 0x204 }
  - { offset: 0x21C95, size: 0x8, addend: 0x0, symName: __ZSt27__unguarded_partition_pivotIN9__gnu_cxx17__normal_iteratorIPxSt6vectorIxSaIxEEEENS0_5__ops15_Iter_comp_iterIZ4mainEUlxxE_EEET_SB_SB_T0_, symObjAddr: 0x3198, symBinAddr: 0x100003888, symSize: 0x130 }
  - { offset: 0x21EBB, size: 0x8, addend: 0x0, symName: __ZSt14__partial_sortIN9__gnu_cxx17__normal_iteratorIPxSt6vectorIxSaIxEEEENS0_5__ops15_Iter_comp_iterIZ4mainEUlxxE_EEEvT_SB_SB_T0_, symObjAddr: 0x314C, symBinAddr: 0x10000383C, symSize: 0x4C }
  - { offset: 0x21F2A, size: 0x8, addend: 0x0, symName: __ZSt25__uninitialized_default_nIPxmET_S1_T0_, symObjAddr: 0x3120, symBinAddr: 0x100003810, symSize: 0x2C }
  - { offset: 0x21FB4, size: 0x8, addend: 0x0, symName: __ZSt13__adjust_heapIN9__gnu_cxx17__normal_iteratorIPSt4pairIxxESt6vectorIS3_SaIS3_EEEElS3_NS0_5__ops15_Iter_comp_iterISt7greaterIS3_EEEEvT_T0_SF_T1_T2_, symObjAddr: 0x2EAC, symBinAddr: 0x10000359C, symSize: 0x274 }
  - { offset: 0x2239D, size: 0x8, addend: 0x0, symName: __ZNSt4pairIxxEaSEOS0_, symObjAddr: 0x2E60, symBinAddr: 0x100003550, symSize: 0x4C }
  - { offset: 0x22420, size: 0x8, addend: 0x0, symName: __ZN9__gnu_cxx5__ops14_Iter_comp_valISt7greaterISt4pairIxxEEEclINS_17__normal_iteratorIPS4_St6vectorIS4_SaIS4_EEEES4_EEbT_RT0_, symObjAddr: 0x2E34, symBinAddr: 0x100003524, symSize: 0x2C }
  - { offset: 0x22504, size: 0x8, addend: 0x0, symName: __ZSt20uninitialized_fill_nIPxmxET_S1_T0_RKT1_, symObjAddr: 0x2E08, symBinAddr: 0x1000034F8, symSize: 0x2C }
  - { offset: 0x225A1, size: 0x8, addend: 0x0, symName: __ZNSt12_Vector_baseIxSaIxEE11_M_allocateEm, symObjAddr: 0x2DB8, symBinAddr: 0x1000034A8, symSize: 0x50 }
  - { offset: 0x22623, size: 0x8, addend: 0x0, symName: __ZNSt12_Vector_baseIxSaIxEE17_Vector_impl_dataC2Ev, symObjAddr: 0x2D8C, symBinAddr: 0x10000347C, symSize: 0x2C }
  - { offset: 0x22676, size: 0x8, addend: 0x0, symName: __ZNSt6vectorISt4pairIxxESaIS1_EE11_S_relocateEPS1_S4_S4_RS2_, symObjAddr: 0x2D58, symBinAddr: 0x100003448, symSize: 0x34 }
  - { offset: 0x2270F, size: 0x8, addend: 0x0, symName: __ZNSt6vectorISt4pairIxxESaIS1_EE12_Guard_allocD1Ev, symObjAddr: 0x2D0C, symBinAddr: 0x1000033FC, symSize: 0x4C }
  - { offset: 0x22779, size: 0x8, addend: 0x0, symName: __ZNSt6vectorISt4pairIxxESaIS1_EE12_Guard_allocC1EPS1_mRSt12_Vector_baseIS1_S2_E, symObjAddr: 0x2CC8, symBinAddr: 0x1000033B8, symSize: 0x44 }
  - { offset: 0x227BA, size: 0x8, addend: 0x0, symName: __ZNSt12_Vector_baseISt4pairIxxESaIS1_EE11_M_allocateEm, symObjAddr: 0x2C78, symBinAddr: 0x100003368, symSize: 0x50 }
  - { offset: 0x22822, size: 0x8, addend: 0x0, symName: __ZNKSt6vectorISt4pairIxxESaIS1_EE12_M_check_lenEmPKc, symObjAddr: 0x2BA8, symBinAddr: 0x100003298, symSize: 0xD0 }
  - { offset: 0x228C1, size: 0x8, addend: 0x0, symName: __ZSt8_DestroyISt6vectorISt4pairIxxESaIS2_EEEvPT_, symObjAddr: 0x2B88, symBinAddr: 0x100003278, symSize: 0x20 }
  - { offset: 0x22911, size: 0x8, addend: 0x0, symName: __ZSt25__uninitialized_default_nIPSt6vectorISt4pairIxxESaIS2_EEmET_S6_T0_, symObjAddr: 0x2B5C, symBinAddr: 0x10000324C, symSize: 0x2C }
  - { offset: 0x229A5, size: 0x8, addend: 0x0, symName: __ZNSt12_Vector_baseISt6vectorISt4pairIxxESaIS2_EESaIS4_EE11_M_allocateEm, symObjAddr: 0x2B0C, symBinAddr: 0x1000031FC, symSize: 0x50 }
  - { offset: 0x22A27, size: 0x8, addend: 0x0, symName: __ZNSt12_Vector_baseISt6vectorISt4pairIxxESaIS2_EESaIS4_EE17_Vector_impl_dataC2Ev, symObjAddr: 0x2AE0, symBinAddr: 0x1000031D0, symSize: 0x2C }
  - { offset: 0x22A7A, size: 0x8, addend: 0x0, symName: __ZSt13__countl_zeroImEiT_, symObjAddr: 0x2AC0, symBinAddr: 0x1000031B0, symSize: 0x20 }
  - { offset: 0x22ABC, size: 0x8, addend: 0x0, symName: __ZSt22__final_insertion_sortIN9__gnu_cxx17__normal_iteratorIPxSt6vectorIxSaIxEEEENS0_5__ops15_Iter_comp_iterIZ4mainEUlxxE_EEEvT_SB_T0_, symObjAddr: 0x29D8, symBinAddr: 0x1000030C8, symSize: 0xE8 }
  - { offset: 0x22C2E, size: 0x8, addend: 0x0, symName: __ZSt16__introsort_loopIN9__gnu_cxx17__normal_iteratorIPxSt6vectorIxSaIxEEEElNS0_5__ops15_Iter_comp_iterIZ4mainEUlxxE_EEEvT_SB_T0_T1_, symObjAddr: 0x2914, symBinAddr: 0x100003004, symSize: 0xC4 }
  - { offset: 0x22D39, size: 0x8, addend: 0x0, symName: __ZSt4__lgIlET_S0_, symObjAddr: 0x28F0, symBinAddr: 0x100002FE0, symSize: 0x24 }
  - { offset: 0x22D93, size: 0x8, addend: 0x0, symName: __ZN9__gnu_cxx5__ops15_Iter_comp_iterIZ4mainEUlxxE_EC1ES2_, symObjAddr: 0x28C8, symBinAddr: 0x100002FB8, symSize: 0x28 }
  - { offset: 0x22E03, size: 0x8, addend: 0x0, symName: __ZSt27__uninitialized_default_n_aIPxmxET_S1_T0_RSaIT1_E, symObjAddr: 0x28A0, symBinAddr: 0x100002F90, symSize: 0x28 }
  - { offset: 0x22E8F, size: 0x8, addend: 0x0, symName: __ZSt10__pop_heapIN9__gnu_cxx17__normal_iteratorIPSt4pairIxxESt6vectorIS3_SaIS3_EEEENS0_5__ops15_Iter_comp_iterISt7greaterIS3_EEEEvT_SE_SE_RT0_, symObjAddr: 0x280C, symBinAddr: 0x100002EFC, symSize: 0x94 }
  - { offset: 0x230CE, size: 0x8, addend: 0x0, symName: __ZNKSt6vectorISt4pairIxxESaIS1_EE3endEv, symObjAddr: 0x27DC, symBinAddr: 0x100002ECC, symSize: 0x30 }
  - { offset: 0x23122, size: 0x8, addend: 0x0, symName: __ZNKSt6vectorISt4pairIxxESaIS1_EE5beginEv, symObjAddr: 0x27B0, symBinAddr: 0x100002EA0, symSize: 0x2C }
  - { offset: 0x23178, size: 0x8, addend: 0x0, symName: __ZSt11__push_heapIN9__gnu_cxx17__normal_iteratorIPSt4pairIxxESt6vectorIS3_SaIS3_EEEElS3_NS0_5__ops14_Iter_comp_valISt7greaterIS3_EEEEvT_T0_SF_T1_RT2_, symObjAddr: 0x2620, symBinAddr: 0x100002D10, symSize: 0x190 }
  - { offset: 0x23428, size: 0x8, addend: 0x0, symName: __ZN9__gnu_cxx5__ops14_Iter_comp_valISt7greaterISt4pairIxxEEEC1ES5_, symObjAddr: 0x2608, symBinAddr: 0x100002CF8, symSize: 0x18 }
  - { offset: 0x23453, size: 0x8, addend: 0x0, symName: __ZSt8_DestroyIPSt4pairIxxEEvT_S3_, symObjAddr: 0x25F0, symBinAddr: 0x100002CE0, symSize: 0x18 }
  - { offset: 0x23499, size: 0x8, addend: 0x0, symName: __ZNSt12_Vector_baseISt4pairIxxESaIS1_EE13_M_deallocateEPS1_m, symObjAddr: 0x2598, symBinAddr: 0x100002C88, symSize: 0x58 }
  - { offset: 0x23535, size: 0x8, addend: 0x0, symName: __ZNSt15__new_allocatorISt4pairIxxEED2Ev, symObjAddr: 0x2584, symBinAddr: 0x100002C74, symSize: 0x14 }
  - { offset: 0x23575, size: 0x8, addend: 0x0, symName: __ZNSt12_Vector_baseISt4pairIxxESaIS1_EE17_Vector_impl_dataC2Ev, symObjAddr: 0x2558, symBinAddr: 0x100002C48, symSize: 0x2C }
  - { offset: 0x235AD, size: 0x8, addend: 0x0, symName: __ZSt8_DestroyIPxEvT_S1_, symObjAddr: 0x2540, symBinAddr: 0x100002C30, symSize: 0x18 }
  - { offset: 0x235EF, size: 0x8, addend: 0x0, symName: __ZSt24__uninitialized_fill_n_aIPxmxxET_S1_T0_RKT1_RSaIT2_E, symObjAddr: 0x2510, symBinAddr: 0x100002C00, symSize: 0x30 }
  - { offset: 0x2366C, size: 0x8, addend: 0x0, symName: __ZNSt12_Vector_baseIxSaIxEE13_M_deallocateEPxm, symObjAddr: 0x24B8, symBinAddr: 0x100002BA8, symSize: 0x58 }
  - { offset: 0x236EE, size: 0x8, addend: 0x0, symName: __ZNSt12_Vector_baseIxSaIxEE17_M_create_storageEm, symObjAddr: 0x2458, symBinAddr: 0x100002B48, symSize: 0x60 }
  - { offset: 0x23750, size: 0x8, addend: 0x0, symName: __ZNSt12_Vector_baseIxSaIxEE12_Vector_implC1ERKS0_, symObjAddr: 0x240C, symBinAddr: 0x100002AFC, symSize: 0x4C }
  - { offset: 0x237F6, size: 0x8, addend: 0x0, symName: __ZNSt6vectorIxSaIxEE11_S_max_sizeERKS0_, symObjAddr: 0x23B8, symBinAddr: 0x100002AA8, symSize: 0x54 }
  - { offset: 0x238B1, size: 0x8, addend: 0x0, symName: __ZNSt6vectorISt4pairIxxESaIS1_EE4backEv, symObjAddr: 0x231C, symBinAddr: 0x100002A0C, symSize: 0x9C }
  - { offset: 0x23968, size: 0x8, addend: 0x0, symName: __ZNSt6vectorISt4pairIxxESaIS1_EE17_M_realloc_appendIJS1_EEEvDpOT_, symObjAddr: 0x2120, symBinAddr: 0x100002810, symSize: 0x1FC }
  - { offset: 0x23C1A, size: 0x8, addend: 0x0, symName: __ZSt8_DestroyIPSt6vectorISt4pairIxxESaIS2_EEEvT_S6_, symObjAddr: 0x20D0, symBinAddr: 0x1000027C0, symSize: 0x50 }
  - { offset: 0x23C7F, size: 0x8, addend: 0x0, symName: __ZSt27__uninitialized_default_n_aIPSt6vectorISt4pairIxxESaIS2_EEmS4_ET_S6_T0_RSaIT1_E, symObjAddr: 0x20A8, symBinAddr: 0x100002798, symSize: 0x28 }
  - { offset: 0x23CE2, size: 0x8, addend: 0x0, symName: __ZNSt12_Vector_baseISt6vectorISt4pairIxxESaIS2_EESaIS4_EE13_M_deallocateEPS4_m, symObjAddr: 0x2050, symBinAddr: 0x100002740, symSize: 0x58 }
  - { offset: 0x23D64, size: 0x8, addend: 0x0, symName: __ZNSt12_Vector_baseISt6vectorISt4pairIxxESaIS2_EESaIS4_EE17_M_create_storageEm, symObjAddr: 0x1FE4, symBinAddr: 0x1000026D4, symSize: 0x6C }
  - { offset: 0x23DC6, size: 0x8, addend: 0x0, symName: __ZNSt12_Vector_baseISt6vectorISt4pairIxxESaIS2_EESaIS4_EE12_Vector_implC1ERKS5_, symObjAddr: 0x1F98, symBinAddr: 0x100002688, symSize: 0x4C }
  - { offset: 0x23E6C, size: 0x8, addend: 0x0, symName: __ZNSt6vectorIS_ISt4pairIxxESaIS1_EESaIS3_EE11_S_max_sizeERKS4_, symObjAddr: 0x1F3C, symBinAddr: 0x10000262C, symSize: 0x5C }
  - { offset: 0x23F23, size: 0x8, addend: 0x0, symName: __ZSt11__bit_widthImEiT_, symObjAddr: 0x1F0C, symBinAddr: 0x1000025FC, symSize: 0x30 }
  - { offset: 0x23F67, size: 0x8, addend: 0x0, symName: __ZSt6__sortIN9__gnu_cxx17__normal_iteratorIPxSt6vectorIxSaIxEEEENS0_5__ops15_Iter_comp_iterIZ4mainEUlxxE_EEEvT_SB_T0_, symObjAddr: 0x1E60, symBinAddr: 0x100002550, symSize: 0xAC }
  - { offset: 0x240D9, size: 0x8, addend: 0x0, symName: __ZN9__gnu_cxx5__ops16__iter_comp_iterIZ4mainEUlxxE_EENS0_15_Iter_comp_iterIT_EES4_, symObjAddr: 0x1E34, symBinAddr: 0x100002524, symSize: 0x2C }
  - { offset: 0x24153, size: 0x8, addend: 0x0, symName: __ZNSt6vectorIxSaIxEE21_M_default_initializeEm, symObjAddr: 0x1DE4, symBinAddr: 0x1000024D4, symSize: 0x50 }
  - { offset: 0x241DD, size: 0x8, addend: 0x0, symName: __ZNSt4pairIxxEC1IxRxLb1EEEOT_OT0_, symObjAddr: 0x1D98, symBinAddr: 0x100002488, symSize: 0x4C }
  - { offset: 0x24293, size: 0x8, addend: 0x0, symName: __ZNSt6vectorISt4pairIxxESaIS1_EE8pop_backEv, symObjAddr: 0x1CFC, symBinAddr: 0x1000023EC, symSize: 0x9C }
  - { offset: 0x2432E, size: 0x8, addend: 0x0, symName: __ZSt8pop_heapIN9__gnu_cxx17__normal_iteratorIPSt4pairIxxESt6vectorIS3_SaIS3_EEEESt7greaterIS3_EEvT_SB_T0_, symObjAddr: 0x1C08, symBinAddr: 0x1000022F8, symSize: 0xF4 }
  - { offset: 0x244CF, size: 0x8, addend: 0x0, symName: __ZNKSt6vectorISt4pairIxxESaIS1_EE5frontEv, symObjAddr: 0x1BA0, symBinAddr: 0x100002290, symSize: 0x68 }
  - { offset: 0x24537, size: 0x8, addend: 0x0, symName: __ZNKSt6vectorISt4pairIxxESaIS1_EE5emptyEv, symObjAddr: 0x1B48, symBinAddr: 0x100002238, symSize: 0x58 }
  - { offset: 0x245CC, size: 0x8, addend: 0x0, symName: __ZSt9push_heapIN9__gnu_cxx17__normal_iteratorIPSt4pairIxxESt6vectorIS3_SaIS3_EEEESt7greaterIS3_EEvT_SB_T0_, symObjAddr: 0x1A8C, symBinAddr: 0x10000217C, symSize: 0xBC }
  - { offset: 0x24837, size: 0x8, addend: 0x0, symName: __ZNSt4pairIiiEC1IiiLb1EEEOT_OT0_, symObjAddr: 0x1A40, symBinAddr: 0x100002130, symSize: 0x4C }
  - { offset: 0x24904, size: 0x8, addend: 0x0, symName: __ZNSt12_Vector_baseISt4pairIxxESaIS1_EE19_M_get_Tp_allocatorEv, symObjAddr: 0x1A2C, symBinAddr: 0x10000211C, symSize: 0x14 }
  - { offset: 0x24948, size: 0x8, addend: 0x0, symName: __ZNSt12_Vector_baseISt4pairIxxESaIS1_EED2Ev, symObjAddr: 0x19DC, symBinAddr: 0x1000020CC, symSize: 0x50 }
  - { offset: 0x2499E, size: 0x8, addend: 0x0, symName: __ZNSt12_Vector_baseISt4pairIxxESaIS1_EE12_Vector_implC1Ev, symObjAddr: 0x19A4, symBinAddr: 0x100002094, symSize: 0x38 }
  - { offset: 0x24A0A, size: 0x8, addend: 0x0, symName: __ZNKSt6vectorIxSaIxEE4sizeEv, symObjAddr: 0x1964, symBinAddr: 0x100002054, symSize: 0x40 }
  - { offset: 0x24A80, size: 0x8, addend: 0x0, symName: __ZNSt12_Vector_baseIxSaIxEE19_M_get_Tp_allocatorEv, symObjAddr: 0x1950, symBinAddr: 0x100002040, symSize: 0x14 }
  - { offset: 0x24AAA, size: 0x8, addend: 0x0, symName: __ZNSt6vectorIxSaIxEE18_M_fill_initializeEmRKx, symObjAddr: 0x18F8, symBinAddr: 0x100001FE8, symSize: 0x58 }
  - { offset: 0x24B10, size: 0x8, addend: 0x0, symName: __ZNSt12_Vector_baseIxSaIxEED2Ev, symObjAddr: 0x18A8, symBinAddr: 0x100001F98, symSize: 0x50 }
  - { offset: 0x24B6C, size: 0x8, addend: 0x0, symName: __ZNSt12_Vector_baseIxSaIxEEC2EmRKS0_, symObjAddr: 0x1854, symBinAddr: 0x100001F44, symSize: 0x54 }
  - { offset: 0x24BC1, size: 0x8, addend: 0x0, symName: __ZNSt12_Vector_baseIxSaIxEE12_Vector_implD1Ev, symObjAddr: 0x1828, symBinAddr: 0x100001F18, symSize: 0x2C }
  - { offset: 0x24C06, size: 0x8, addend: 0x0, symName: __ZNSt6vectorIxSaIxEE17_S_check_init_lenEmRKS0_, symObjAddr: 0x17A4, symBinAddr: 0x100001E94, symSize: 0x84 }
  - { offset: 0x24CD6, size: 0x8, addend: 0x0, symName: __ZNSt15__new_allocatorIxED2Ev, symObjAddr: 0x1790, symBinAddr: 0x100001E80, symSize: 0x14 }
  - { offset: 0x24D12, size: 0x8, addend: 0x0, symName: __ZNSt6vectorISt4pairIxxESaIS1_EE12emplace_backIJS1_EEERS1_DpOT_, symObjAddr: 0x1690, symBinAddr: 0x100001D80, symSize: 0x100 }
  - { offset: 0x24E9E, size: 0x8, addend: 0x0, symName: __ZNSt4pairIxxEC1IRxS2_Lb1EEEOT_OT0_, symObjAddr: 0x1644, symBinAddr: 0x100001D34, symSize: 0x4C }
  - { offset: 0x24F54, size: 0x8, addend: 0x0, symName: __ZNKSt6vectorIS_ISt4pairIxxESaIS1_EESaIS3_EE4sizeEv, symObjAddr: 0x15F8, symBinAddr: 0x100001CE8, symSize: 0x4C }
  - { offset: 0x24FCA, size: 0x8, addend: 0x0, symName: __ZNSt12_Vector_baseISt6vectorISt4pairIxxESaIS2_EESaIS4_EE19_M_get_Tp_allocatorEv, symObjAddr: 0x15E4, symBinAddr: 0x100001CD4, symSize: 0x14 }
  - { offset: 0x24FF4, size: 0x8, addend: 0x0, symName: __ZNSt6vectorIS_ISt4pairIxxESaIS1_EESaIS3_EE21_M_default_initializeEm, symObjAddr: 0x1594, symBinAddr: 0x100001C84, symSize: 0x50 }
  - { offset: 0x25049, size: 0x8, addend: 0x0, symName: __ZNSt12_Vector_baseISt6vectorISt4pairIxxESaIS2_EESaIS4_EED2Ev, symObjAddr: 0x1538, symBinAddr: 0x100001C28, symSize: 0x5C }
  - { offset: 0x250A5, size: 0x8, addend: 0x0, symName: __ZNSt12_Vector_baseISt6vectorISt4pairIxxESaIS2_EESaIS4_EEC2EmRKS5_, symObjAddr: 0x14E4, symBinAddr: 0x100001BD4, symSize: 0x54 }
  - { offset: 0x250FA, size: 0x8, addend: 0x0, symName: __ZNSt12_Vector_baseISt6vectorISt4pairIxxESaIS2_EESaIS4_EE12_Vector_implD1Ev, symObjAddr: 0x14B8, symBinAddr: 0x100001BA8, symSize: 0x2C }
  - { offset: 0x2513F, size: 0x8, addend: 0x0, symName: __ZNSt6vectorIS_ISt4pairIxxESaIS1_EESaIS3_EE17_S_check_init_lenEmRKS4_, symObjAddr: 0x1434, symBinAddr: 0x100001B24, symSize: 0x84 }
  - { offset: 0x2520F, size: 0x8, addend: 0x0, symName: __ZNSt15__new_allocatorISt6vectorISt4pairIxxESaIS2_EEED2Ev, symObjAddr: 0x1420, symBinAddr: 0x100001B10, symSize: 0x14 }
  - { offset: 0x2526B, size: 0x8, addend: 0x0, symName: __ZSt3maxIxERKT_S2_S2_, symObjAddr: 0x13E8, symBinAddr: 0x100001AD8, symSize: 0x38 }
  - { offset: 0x252AF, size: 0x8, addend: 0x0, symName: __ZSt3minIxERKT_S2_S2_, symObjAddr: 0x13B0, symBinAddr: 0x100001AA0, symSize: 0x38 }
  - { offset: 0x25307, size: 0x8, addend: 0x0, symName: __ZSt4sortIN9__gnu_cxx17__normal_iteratorIPxSt6vectorIxSaIxEEEEZ4mainEUlxxE_EvT_S8_T0_, symObjAddr: 0x1378, symBinAddr: 0x100001A68, symSize: 0x38 }
  - { offset: 0x25365, size: 0x8, addend: 0x0, symName: __ZSt4iotaIN9__gnu_cxx17__normal_iteratorIPxSt6vectorIxSaIxEEEEiEvT_S7_T0_, symObjAddr: 0x12F4, symBinAddr: 0x1000019E4, symSize: 0x84 }
  - { offset: 0x25472, size: 0x8, addend: 0x0, symName: __ZNSt6vectorIxSaIxEE3endEv, symObjAddr: 0x12C4, symBinAddr: 0x1000019B4, symSize: 0x30 }
  - { offset: 0x254C6, size: 0x8, addend: 0x0, symName: __ZNSt6vectorIxSaIxEE5beginEv, symObjAddr: 0x1298, symBinAddr: 0x100001988, symSize: 0x2C }
  - { offset: 0x25550, size: 0x8, addend: 0x0, symName: __ZNSt6vectorIxSaIxEEC1EmRKS0_, symObjAddr: 0x1230, symBinAddr: 0x100001920, symSize: 0x68 }
  - { offset: 0x25584, size: 0x8, addend: 0x0, symName: __ZSt9make_pairIxRxESt4pairINSt25__strip_reference_wrapperINSt5decayIT_E4typeEE6__typeENS2_INS3_IT0_E4typeEE6__typeEEOS4_OS9_, symObjAddr: 0x11F4, symBinAddr: 0x1000018E4, symSize: 0x3C }
  - { offset: 0x25633, size: 0x8, addend: 0x0, symName: __ZNSt6vectorISt4pairIxxESaIS1_EE3endEv, symObjAddr: 0x11C4, symBinAddr: 0x1000018B4, symSize: 0x30 }
  - { offset: 0x25687, size: 0x8, addend: 0x0, symName: __ZNSt6vectorISt4pairIxxESaIS1_EE5beginEv, symObjAddr: 0x1198, symBinAddr: 0x100001888, symSize: 0x2C }
  - { offset: 0x256DB, size: 0x8, addend: 0x0, symName: __ZNSt14priority_queueISt4pairIxxESt6vectorIS1_SaIS1_EESt7greaterIS1_EE3popEv, symObjAddr: 0x1108, symBinAddr: 0x1000017F8, symSize: 0x90 }
  - { offset: 0x25720, size: 0x8, addend: 0x0, symName: __ZNKSt14priority_queueISt4pairIxxESt6vectorIS1_SaIS1_EESt7greaterIS1_EE3topEv, symObjAddr: 0x10A8, symBinAddr: 0x100001798, symSize: 0x60 }
  - { offset: 0x25767, size: 0x8, addend: 0x0, symName: __ZNKSt14priority_queueISt4pairIxxESt6vectorIS1_SaIS1_EESt7greaterIS1_EE5emptyEv, symObjAddr: 0x108C, symBinAddr: 0x10000177C, symSize: 0x1C }
  - { offset: 0x25791, size: 0x8, addend: 0x0, symName: __ZNSt14priority_queueISt4pairIxxESt6vectorIS1_SaIS1_EESt7greaterIS1_EE4pushEOS1_, symObjAddr: 0x1030, symBinAddr: 0x100001720, symSize: 0x5C }
  - { offset: 0x2582A, size: 0x8, addend: 0x0, symName: __ZNSt4pairIxxEC1IiiLb1EEEOS_IT_T0_E, symObjAddr: 0xFDC, symBinAddr: 0x1000016CC, symSize: 0x54 }
  - { offset: 0x258AF, size: 0x8, addend: 0x0, symName: __ZSt9make_pairIiiESt4pairINSt25__strip_reference_wrapperINSt5decayIT_E4typeEE6__typeENS1_INS2_IT0_E4typeEE6__typeEEOS3_OS8_, symObjAddr: 0xFA0, symBinAddr: 0x100001690, symSize: 0x3C }
  - { offset: 0x25962, size: 0x8, addend: 0x0, symName: __ZNSt6vectorISt4pairIxxESaIS1_EED1Ev, symObjAddr: 0xF44, symBinAddr: 0x100001634, symSize: 0x5C }
  - { offset: 0x259E6, size: 0x8, addend: 0x0, symName: __ZNSt14priority_queueISt4pairIxxESt6vectorIS1_SaIS1_EESt7greaterIS1_EEC1IS4_vEEv, symObjAddr: 0xF18, symBinAddr: 0x100001608, symSize: 0x2C }
  - { offset: 0x25A34, size: 0x8, addend: 0x0, symName: __ZNSt6vectorISt4pairIxxESaIS1_EEC1Ev, symObjAddr: 0xEF8, symBinAddr: 0x1000015E8, symSize: 0x20 }
  - { offset: 0x25A74, size: 0x8, addend: 0x0, symName: __ZNSt12_Vector_baseISt4pairIxxESaIS1_EEC2Ev, symObjAddr: 0xED8, symBinAddr: 0x1000015C8, symSize: 0x20 }
  - { offset: 0x25AB7, size: 0x8, addend: 0x0, symName: __ZNSt12_Vector_baseISt4pairIxxESaIS1_EE12_Vector_implD1Ev, symObjAddr: 0xEAC, symBinAddr: 0x10000159C, symSize: 0x2C }
  - { offset: 0x25B00, size: 0x8, addend: 0x0, symName: __ZNSt6vectorIxSaIxEEixEm, symObjAddr: 0xE28, symBinAddr: 0x100001518, symSize: 0x84 }
  - { offset: 0x25B70, size: 0x8, addend: 0x0, symName: __ZNSt6vectorIxSaIxEED1Ev, symObjAddr: 0xDCC, symBinAddr: 0x1000014BC, symSize: 0x5C }
  - { offset: 0x25C10, size: 0x8, addend: 0x0, symName: __ZNSt6vectorIxSaIxEEC1EmRKxRKS0_, symObjAddr: 0xD5C, symBinAddr: 0x10000144C, symSize: 0x70 }
  - { offset: 0x25C7D, size: 0x8, addend: 0x0, symName: __ZNSt6vectorISt4pairIxxESaIS1_EE9push_backEOS1_, symObjAddr: 0xD28, symBinAddr: 0x100001418, symSize: 0x34 }
  - { offset: 0x25CD8, size: 0x8, addend: 0x0, symName: __ZSt9make_pairIRxS0_ESt4pairINSt25__strip_reference_wrapperINSt5decayIT_E4typeEE6__typeENS2_INS3_IT0_E4typeEE6__typeEEOS4_OS9_, symObjAddr: 0xCEC, symBinAddr: 0x1000013DC, symSize: 0x3C }
  - { offset: 0x25D71, size: 0x8, addend: 0x0, symName: __ZNSt6vectorIS_ISt4pairIxxESaIS1_EESaIS3_EEixEm, symObjAddr: 0xC5C, symBinAddr: 0x10000134C, symSize: 0x90 }
  - { offset: 0x25DE3, size: 0x8, addend: 0x0, symName: __ZNSt6vectorIS_ISt4pairIxxESaIS1_EESaIS3_EED1Ev, symObjAddr: 0xC00, symBinAddr: 0x1000012F0, symSize: 0x5C }
  - { offset: 0x25E75, size: 0x8, addend: 0x0, symName: __ZNSt6vectorIS_ISt4pairIxxESaIS1_EESaIS3_EEC1EmRKS4_, symObjAddr: 0xB98, symBinAddr: 0x100001288, symSize: 0x68 }
  - { offset: 0x25ED5, size: 0x8, addend: 0x0, symName: __ZSt3maxImERKT_S2_S2_, symObjAddr: 0xB60, symBinAddr: 0x100001250, symSize: 0x38 }
  - { offset: 0x25F20, size: 0x8, addend: 0x0, symName: _main, symObjAddr: 0x178, symBinAddr: 0x100000868, symSize: 0x9E8 }
  - { offset: 0x2603E, size: 0x8, addend: 0x0, symName: __ZZ4mainENKUlxxE_clExx, symObjAddr: 0x120, symBinAddr: 0x100000810, symSize: 0x58 }
  - { offset: 0x26862, size: 0x8, addend: 0x0, symName: __ZNSt10__pair_getILm1EE10__move_getIxxEEOT0_OSt4pairIT_S2_E, symObjAddr: 0x100, symBinAddr: 0x1000007F0, symSize: 0x20 }
  - { offset: 0x268C2, size: 0x8, addend: 0x0, symName: __ZSt3getILm1ExxEONSt13tuple_elementIXT_ESt4pairIT0_T1_EE4typeEOS4_, symObjAddr: 0xDC, symBinAddr: 0x1000007CC, symSize: 0x24 }
  - { offset: 0x26950, size: 0x8, addend: 0x0, symName: __ZNSt10__pair_getILm0EE10__move_getIxxEEOT_OSt4pairIS2_T0_E, symObjAddr: 0xC0, symBinAddr: 0x1000007B0, symSize: 0x1C }
  - { offset: 0x269D5, size: 0x8, addend: 0x0, symName: __ZSt3getILm0ExxEONSt13tuple_elementIXT_ESt4pairIT0_T1_EE4typeEOS4_, symObjAddr: 0x9C, symBinAddr: 0x10000078C, symSize: 0x24 }
  - { offset: 0x26A61, size: 0x8, addend: 0x0, symName: __ZNSt14priority_queueISt4pairIxxESt6vectorIS1_SaIS1_EESt7greaterIS1_EED1Ev, symObjAddr: 0x7C, symBinAddr: 0x10000076C, symSize: 0x20 }
  - { offset: 0x26A83, size: 0x8, addend: 0x0, symName: __ZSt3minImERKT_S2_S2_, symObjAddr: 0x44, symBinAddr: 0x100000734, symSize: 0x38 }
  - { offset: 0x26ACC, size: 0x8, addend: 0x0, symName: __ZdlPvS_, symObjAddr: 0x2C, symBinAddr: 0x10000071C, symSize: 0x18 }
  - { offset: 0x26B02, size: 0x8, addend: 0x0, symName: __ZnwmPv, symObjAddr: 0x14, symBinAddr: 0x100000704, symSize: 0x18 }
  - { offset: 0x26B34, size: 0x8, addend: 0x0, symName: __ZSt17__size_to_integerm, symObjAddr: 0x0, symBinAddr: 0x1000006F0, symSize: 0x14 }
...
